target datalayout = "e-m:e-p270:32:32-p271:32:32-p272:64:64-i64:64-i128:128-f80:128-n8:16:32:64-S128"
target triple = "x86_64-pc-linux-gnu"

%struct.rgbe_header_info = type { i32, [16 x i8], float, float }

@.str.6 = private unnamed_addr constant [24 x i8] c"FORMAT=32-bit_rle_rgbe\0A\00", align 1
@.str.7 = private unnamed_addr constant [9 x i8] c"GAMMA=%g\00", align 1
@.str.8 = private unnamed_addr constant [12 x i8] c"EXPOSURE=%g\00", align 1
@.str.9 = private unnamed_addr constant [2 x i8] c"\0A\00", align 1
@.str.10 = private unnamed_addr constant [42 x i8] c"missing blank line after FORMAT specifier\00", align 1
@.str.11 = private unnamed_addr constant [25 x i8] c"missing FORMAT specifier\00", align 1
@.str.12 = private unnamed_addr constant [12 x i8] c"-Y %d +X %d\00", align 1
@.str.13 = private unnamed_addr constant [29 x i8] c"missing image size specifier\00", align 1

; Function Attrs: mustprogress uwtable
define hidden noundef i32 @_Z15RGBE_ReadHeaderP8_IO_FILEPiS1_P16rgbe_header_info(ptr noundef %0, ptr noundef %1, ptr noundef %2, ptr noundef %3) #0 {
  %5 = alloca i32, align 4
  %6 = alloca ptr, align 8
  %7 = alloca ptr, align 8
  %8 = alloca ptr, align 8
  %9 = alloca ptr, align 8
  %10 = alloca [128 x i8], align 16
  %11 = alloca float, align 4
  %12 = alloca i32, align 4
  %13 = alloca i32, align 4
  %14 = alloca i8, align 1
  store ptr %0, ptr %6, align 8, !tbaa !3
  store ptr %1, ptr %7, align 8, !tbaa !18
  store ptr %2, ptr %8, align 8, !tbaa !18
  store ptr %3, ptr %9, align 8, !tbaa !10
  call void @llvm.lifetime.start.p0(i64 128, ptr %10) #15
  call void @llvm.lifetime.start.p0(i64 4, ptr %11) #15
  call void @llvm.lifetime.start.p0(i64 4, ptr %12) #15
  %15 = load ptr, ptr %9, align 8, !tbaa !10
  %16 = icmp ne ptr %15, null
  br i1 %16, label %17, label %27

17:                                               ; preds = %4
  %18 = load ptr, ptr %9, align 8, !tbaa !10
  %19 = getelementptr inbounds nuw %struct.rgbe_header_info, ptr %18, i32 0, i32 0
  store i32 0, ptr %19, align 4, !tbaa !13
  %20 = load ptr, ptr %9, align 8, !tbaa !10
  %21 = getelementptr inbounds nuw %struct.rgbe_header_info, ptr %20, i32 0, i32 1
  %22 = getelementptr inbounds [16 x i8], ptr %21, i64 0, i64 0
  store i8 0, ptr %22, align 4, !tbaa !20
  %23 = load ptr, ptr %9, align 8, !tbaa !10
  %24 = getelementptr inbounds nuw %struct.rgbe_header_info, ptr %23, i32 0, i32 3
  store float 1.000000e+00, ptr %24, align 4, !tbaa !17
  %25 = load ptr, ptr %9, align 8, !tbaa !10
  %26 = getelementptr inbounds nuw %struct.rgbe_header_info, ptr %25, i32 0, i32 2
  store float 1.000000e+00, ptr %26, align 4, !tbaa !16
  br label %27

27:                                               ; preds = %17, %4
  %28 = getelementptr inbounds [128 x i8], ptr %10, i64 0, i64 0
  %29 = load ptr, ptr %6, align 8, !tbaa !3
  %30 = call ptr @fgets(ptr noundef %28, i32 noundef 128, ptr noundef %29)
  %31 = icmp eq ptr %30, null
  br i1 %31, label %32, label %34

32:                                               ; preds = %27
  %33 = call noundef i32 @_ZL10rgbe_erroriPKc(i32 noundef 0, ptr noundef null)
  store i32 %33, ptr %5, align 4
  store i32 1, ptr %13, align 4
  br label %183

34:                                               ; preds = %27
  %35 = getelementptr inbounds [128 x i8], ptr %10, i64 0, i64 0
  %36 = load i8, ptr %35, align 16, !tbaa !20
  %37 = sext i8 %36 to i32
  %38 = icmp ne i32 %37, 35
  br i1 %38, label %44, label %39

39:                                               ; preds = %34
  %40 = getelementptr inbounds [128 x i8], ptr %10, i64 0, i64 1
  %41 = load i8, ptr %40, align 1, !tbaa !20
  %42 = sext i8 %41 to i32
  %43 = icmp ne i32 %42, 63
  br i1 %43, label %44, label %45

44:                                               ; preds = %39, %34
  br label %95

45:                                               ; preds = %39
  %46 = load ptr, ptr %9, align 8, !tbaa !10
  %47 = icmp ne ptr %46, null
  br i1 %47, label %48, label %94

48:                                               ; preds = %45
  %49 = load ptr, ptr %9, align 8, !tbaa !10
  %50 = getelementptr inbounds nuw %struct.rgbe_header_info, ptr %49, i32 0, i32 0
  %51 = load i32, ptr %50, align 4, !tbaa !13
  %52 = or i32 %51, 1
  store i32 %52, ptr %50, align 4, !tbaa !13
  store i32 0, ptr %12, align 4, !tbaa !8
  br label %53

53:                                               ; preds = %85, %48
  %54 = load i32, ptr %12, align 4, !tbaa !8
  %55 = icmp slt i32 %54, 15
  br i1 %55, label %56, label %88

56:                                               ; preds = %53
  %57 = load i32, ptr %12, align 4, !tbaa !8
  %58 = add nsw i32 %57, 2
  %59 = sext i32 %58 to i64
  %60 = getelementptr inbounds [128 x i8], ptr %10, i64 0, i64 %59
  %61 = load i8, ptr %60, align 1, !tbaa !20
  %62 = sext i8 %61 to i32
  %63 = icmp eq i32 %62, 0
  br i1 %63, label %73, label %64

64:                                               ; preds = %56
  %65 = load i32, ptr %12, align 4, !tbaa !8
  %66 = add nsw i32 %65, 2
  %67 = sext i32 %66 to i64
  %68 = getelementptr inbounds [128 x i8], ptr %10, i64 0, i64 %67
  %69 = load i8, ptr %68, align 1, !tbaa !20
  %70 = sext i8 %69 to i32
  %71 = call i32 @isspace(i32 noundef %70) #17
  %72 = icmp ne i32 %71, 0
  br i1 %72, label %73, label %74

73:                                               ; preds = %64, %56
  br label %88

74:                                               ; preds = %64
  %75 = load i32, ptr %12, align 4, !tbaa !8
  %76 = add nsw i32 %75, 2
  %77 = sext i32 %76 to i64
  %78 = getelementptr inbounds [128 x i8], ptr %10, i64 0, i64 %77
  %79 = load i8, ptr %78, align 1, !tbaa !20
  %80 = load ptr, ptr %9, align 8, !tbaa !10
  %81 = getelementptr inbounds nuw %struct.rgbe_header_info, ptr %80, i32 0, i32 1
  %82 = load i32, ptr %12, align 4, !tbaa !8
  %83 = sext i32 %82 to i64
  %84 = getelementptr inbounds [16 x i8], ptr %81, i64 0, i64 %83
  store i8 %79, ptr %84, align 1, !tbaa !20
  br label %85

85:                                               ; preds = %74
  %86 = load i32, ptr %12, align 4, !tbaa !8
  %87 = add nsw i32 %86, 1
  store i32 %87, ptr %12, align 4, !tbaa !8
  br label %53, !llvm.loop !21

88:                                               ; preds = %73, %53
  %89 = load ptr, ptr %9, align 8, !tbaa !10
  %90 = getelementptr inbounds nuw %struct.rgbe_header_info, ptr %89, i32 0, i32 1
  %91 = load i32, ptr %12, align 4, !tbaa !8
  %92 = sext i32 %91 to i64
  %93 = getelementptr inbounds [16 x i8], ptr %90, i64 0, i64 %92
  store i8 0, ptr %93, align 1, !tbaa !20
  br label %94

94:                                               ; preds = %88, %45
  br label %95

95:                                               ; preds = %94, %44
  call void @llvm.lifetime.start.p0(i64 1, ptr %14) #15
  store i8 0, ptr %14, align 1, !tbaa !23
  br label %96

96:                                               ; preds = %154, %114, %95
  %97 = getelementptr inbounds [128 x i8], ptr %10, i64 0, i64 0
  %98 = load ptr, ptr %6, align 8, !tbaa !3
  %99 = call ptr @fgets(ptr noundef %97, i32 noundef 128, ptr noundef %98)
  %100 = icmp eq ptr %99, null
  br i1 %100, label %101, label %103

101:                                              ; preds = %96
  %102 = call noundef i32 @_ZL10rgbe_erroriPKc(i32 noundef 0, ptr noundef null)
  store i32 %102, ptr %5, align 4
  store i32 1, ptr %13, align 4
  br label %182

103:                                              ; preds = %96
  %104 = getelementptr inbounds [128 x i8], ptr %10, i64 0, i64 0
  %105 = load i8, ptr %104, align 16, !tbaa !20
  %106 = sext i8 %105 to i32
  %107 = icmp eq i32 %106, 10
  br i1 %107, label %108, label %109

108:                                              ; preds = %103
  br label %155

109:                                              ; preds = %103
  %110 = getelementptr inbounds [128 x i8], ptr %10, i64 0, i64 0
  %111 = load i8, ptr %110, align 16, !tbaa !20
  %112 = sext i8 %111 to i32
  %113 = icmp eq i32 %112, 35
  br i1 %113, label %114, label %115

114:                                              ; preds = %109
  br label %96, !llvm.loop !25

115:                                              ; preds = %109
  %116 = getelementptr inbounds [128 x i8], ptr %10, i64 0, i64 0
  %117 = call i32 @strcmp(ptr noundef %116, ptr noundef @.str.6) #17
  %118 = icmp eq i32 %117, 0
  br i1 %118, label %119, label %120

119:                                              ; preds = %115
  store i8 1, ptr %14, align 1, !tbaa !23
  br label %152

120:                                              ; preds = %115
  %121 = load ptr, ptr %9, align 8, !tbaa !10
  %122 = icmp ne ptr %121, null
  br i1 %122, label %123, label %135

123:                                              ; preds = %120
  %124 = getelementptr inbounds [128 x i8], ptr %10, i64 0, i64 0
  %125 = call i32 (ptr, ptr, ...) @__isoc99_sscanf(ptr noundef %124, ptr noundef @.str.7, ptr noundef %11) #15
  %126 = icmp eq i32 %125, 1
  br i1 %126, label %127, label %135

127:                                              ; preds = %123
  %128 = load float, ptr %11, align 4, !tbaa !26
  %129 = load ptr, ptr %9, align 8, !tbaa !10
  %130 = getelementptr inbounds nuw %struct.rgbe_header_info, ptr %129, i32 0, i32 2
  store float %128, ptr %130, align 4, !tbaa !16
  %131 = load ptr, ptr %9, align 8, !tbaa !10
  %132 = getelementptr inbounds nuw %struct.rgbe_header_info, ptr %131, i32 0, i32 0
  %133 = load i32, ptr %132, align 4, !tbaa !13
  %134 = or i32 %133, 2
  store i32 %134, ptr %132, align 4, !tbaa !13
  br label %151

135:                                              ; preds = %123, %120
  %136 = load ptr, ptr %9, align 8, !tbaa !10
  %137 = icmp ne ptr %136, null
  br i1 %137, label %138, label %150

138:                                              ; preds = %135
  %139 = getelementptr inbounds [128 x i8], ptr %10, i64 0, i64 0
  %140 = call i32 (ptr, ptr, ...) @__isoc99_sscanf(ptr noundef %139, ptr noundef @.str.8, ptr noundef %11) #15
  %141 = icmp eq i32 %140, 1
  br i1 %141, label %142, label %150

142:                                              ; preds = %138
  %143 = load float, ptr %11, align 4, !tbaa !26
  %144 = load ptr, ptr %9, align 8, !tbaa !10
  %145 = getelementptr inbounds nuw %struct.rgbe_header_info, ptr %144, i32 0, i32 3
  store float %143, ptr %145, align 4, !tbaa !17
  %146 = load ptr, ptr %9, align 8, !tbaa !10
  %147 = getelementptr inbounds nuw %struct.rgbe_header_info, ptr %146, i32 0, i32 0
  %148 = load i32, ptr %147, align 4, !tbaa !13
  %149 = or i32 %148, 4
  store i32 %149, ptr %147, align 4, !tbaa !13
  br label %150

150:                                              ; preds = %142, %138, %135
  br label %151

151:                                              ; preds = %150, %127
  br label %152

152:                                              ; preds = %151, %119
  br label %153

153:                                              ; preds = %152
  br label %154

154:                                              ; preds = %153
  br label %96, !llvm.loop !25

155:                                              ; preds = %108
  %156 = getelementptr inbounds [128 x i8], ptr %10, i64 0, i64 0
  %157 = call i32 @strcmp(ptr noundef %156, ptr noundef @.str.9) #17
  %158 = icmp ne i32 %157, 0
  br i1 %158, label %159, label %161

159:                                              ; preds = %155
  %160 = call noundef i32 @_ZL10rgbe_erroriPKc(i32 noundef 2, ptr noundef @.str.10)
  store i32 %160, ptr %5, align 4
  store i32 1, ptr %13, align 4
  br label %182

161:                                              ; preds = %155
  %162 = load i8, ptr %14, align 1, !tbaa !23, !range !27, !noundef !28
  %163 = trunc i8 %162 to i1
  br i1 %163, label %166, label %164

164:                                              ; preds = %161
  %165 = call noundef i32 @_ZL10rgbe_erroriPKc(i32 noundef 2, ptr noundef @.str.11)
  store i32 %165, ptr %5, align 4
  store i32 1, ptr %13, align 4
  br label %182

166:                                              ; preds = %161
  %167 = getelementptr inbounds [128 x i8], ptr %10, i64 0, i64 0
  %168 = load ptr, ptr %6, align 8, !tbaa !3
  %169 = call ptr @fgets(ptr noundef %167, i32 noundef 128, ptr noundef %168)
  %170 = icmp eq ptr %169, null
  br i1 %170, label %171, label %173

171:                                              ; preds = %166
  %172 = call noundef i32 @_ZL10rgbe_erroriPKc(i32 noundef 0, ptr noundef null)
  store i32 %172, ptr %5, align 4
  store i32 1, ptr %13, align 4
  br label %182

173:                                              ; preds = %166
  %174 = getelementptr inbounds [128 x i8], ptr %10, i64 0, i64 0
  %175 = load ptr, ptr %8, align 8, !tbaa !18
  %176 = load ptr, ptr %7, align 8, !tbaa !18
  %177 = call i32 (ptr, ptr, ...) @__isoc99_sscanf(ptr noundef %174, ptr noundef @.str.12, ptr noundef %175, ptr noundef %176) #15
  %178 = icmp slt i32 %177, 2
  br i1 %178, label %179, label %181

179:                                              ; preds = %173
  %180 = call noundef i32 @_ZL10rgbe_erroriPKc(i32 noundef 2, ptr noundef @.str.13)
  store i32 %180, ptr %5, align 4
  store i32 1, ptr %13, align 4
  br label %182

181:                                              ; preds = %173
  store i32 0, ptr %5, align 4
  store i32 1, ptr %13, align 4
  br label %182

182:                                              ; preds = %181, %179, %171, %164, %159, %101
  call void @llvm.lifetime.end.p0(i64 1, ptr %14) #15
  br label %183

183:                                              ; preds = %182, %32
  call void @llvm.lifetime.end.p0(i64 4, ptr %12) #15
  call void @llvm.lifetime.end.p0(i64 4, ptr %11) #15
  call void @llvm.lifetime.end.p0(i64 128, ptr %10) #15
  %184 = load i32, ptr %5, align 4
  ret i32 %184
}