; Function Attrs: mustprogress uwtable
define hidden noundef i32 @_Z15RGBE_ReadHeaderP8_IO_FILEPiS1_P16rgbe_header_info(ptr noundef captures(none) %0, ptr noundef %1, ptr noundef %2, ptr noundef %3) local_unnamed_addr #0 personality ptr @__gxx_personality_v0 {
  %5 = alloca %"class.std::__cxx11::basic_string", align 8
  %6 = alloca %"class.std::__cxx11::basic_string", align 8
  %7 = alloca [128 x i8], align 16
  %8 = alloca float, align 4
  call void @llvm.lifetime.start.p0(i64 128, ptr nonnull %7) #18
  call void @llvm.lifetime.start.p0(i64 4, ptr nonnull %8) #18
  %9 = icmp ne ptr %3, null
  br i1 %9, label %10, label %14

10:                                               ; preds = %4
  store i32 0, ptr %3, align 4, !tbaa !3
  %11 = getelementptr inbounds nuw i8, ptr %3, i64 4
  store i8 0, ptr %11, align 4, !tbaa !17
  %12 = getelementptr inbounds nuw i8, ptr %3, i64 24
  store float 1.000000e+00, ptr %12, align 4, !tbaa !20
  %13 = getelementptr inbounds nuw i8, ptr %3, i64 20
  store float 1.000000e+00, ptr %13, align 4, !tbaa !19
  br label %14

14:                                               ; preds = %10, %4
  %15 = call ptr @fgets(ptr noundef nonnull %7, i32 noundef 128, ptr noundef %0)
  %16 = icmp eq ptr %15, null
  br i1 %16, label %17, label %28

17:                                               ; preds = %14
  call void @llvm.lifetime.start.p0(i64 32, ptr nonnull %6) #18
  %18 = getelementptr inbounds nuw i8, ptr %6, i64 16
  store ptr %18, ptr %6, align 8, !tbaa !9
  call void @llvm.memcpy.p0.p0.i64(ptr noundef nonnull align 8 dereferenceable(15) %18, ptr noundef nonnull align 1 dereferenceable(15) @.str.17, i64 15, i1 false)
  %19 = getelementptr inbounds nuw i8, ptr %6, i64 8
  store i64 15, ptr %19, align 8, !tbaa !18
  %20 = getelementptr inbounds nuw i8, ptr %6, i64 31
  store i8 0, ptr %20, align 1, !tbaa !17
  invoke void @_ZN2cv5errorEiRKNSt7__cxx1112basic_stringIcSt11char_traitsIcESaIcEEEPKcS9_i(i32 noundef -2, ptr noundef nonnull align 8 dereferenceable(32) %6, ptr noundef nonnull @__func__._ZL10rgbe_erroriPKc, ptr noundef nonnull @.str.18, i32 noundef 88) #19
          to label %21 unwind label %22

21:                                               ; preds = %17
  unreachable

22:                                               ; preds = %17
  %23 = landingpad { ptr, i32 }
          cleanup
  %24 = load ptr, ptr %6, align 8, !tbaa !15
  %25 = icmp eq ptr %24, %18
  br i1 %25, label %_ZNKSt7__cxx1112basic_stringIcSt11char_traitsIcESaIcEE11_M_is_localEv.exit.thread.i.i.i, label %_ZNKSt7__cxx1112basic_stringIcSt11char_traitsIcESaIcEE11_M_is_localEv.exit.i.i.i

_ZNKSt7__cxx1112basic_stringIcSt11char_traitsIcESaIcEE11_M_is_localEv.exit.thread.i.i.i: ; preds = %22
  %26 = load i64, ptr %19, align 8, !tbaa !18
  %27 = icmp ult i64 %26, 16
  call void @llvm.assume(i1 %27)
  br label %_ZNSt7__cxx1112basic_stringIcSt11char_traitsIcESaIcEED2Ev.exit.i

_ZNKSt7__cxx1112basic_stringIcSt11char_traitsIcESaIcEE11_M_is_localEv.exit.i.i.i: ; preds = %22
  call void @_ZdlPv(ptr noundef %24) #20
  br label %_ZNSt7__cxx1112basic_stringIcSt11char_traitsIcESaIcEED2Ev.exit.i

common.resume:                                    ; preds = %_ZNSt7__cxx1112basic_stringIcSt11char_traitsIcESaIcEED2Ev.exit.i46, %_ZNSt7__cxx1112basic_stringIcSt11char_traitsIcESaIcEED2Ev.exit.i
  %common.resume.op = phi { ptr, i32 } [ %23, %_ZNSt7__cxx1112basic_stringIcSt11char_traitsIcESaIcEED2Ev.exit.i ], [ %66, %_ZNSt7__cxx1112basic_stringIcSt11char_traitsIcESaIcEED2Ev.exit.i46 ]
  resume { ptr, i32 } %common.resume.op

_ZNSt7__cxx1112basic_stringIcSt11char_traitsIcESaIcEED2Ev.exit.i: ; preds = %_ZNKSt7__cxx1112basic_stringIcSt11char_traitsIcESaIcEE11_M_is_localEv.exit.i.i.i, %_ZNKSt7__cxx1112basic_stringIcSt11char_traitsIcESaIcEE11_M_is_localEv.exit.thread.i.i.i
  call void @llvm.lifetime.end.p0(i64 32, ptr nonnull %6) #18
  br label %common.resume

28:                                               ; preds = %14
  %29 = load i8, ptr %7, align 16, !tbaa !17
  %30 = icmp eq i8 %29, 35
  %31 = getelementptr inbounds nuw i8, ptr %7, i64 1
  %32 = load i8, ptr %31, align 1
  %33 = icmp eq i8 %32, 63
  %or.cond.not41 = select i1 %30, i1 %33, i1 false
  %or.cond5 = and i1 %9, %or.cond.not41
  br i1 %or.cond5, label %34, label %50

34:                                               ; preds = %28
  %35 = load i32, ptr %3, align 4, !tbaa !3
  %36 = or i32 %35, 1
  store i32 %36, ptr %3, align 4, !tbaa !3
  %37 = getelementptr inbounds nuw i8, ptr %3, i64 4
  br label %38

38:                                               ; preds = %34, %46
  %indvars.iv = phi i64 [ 0, %34 ], [ %indvars.iv.next, %46 ]
  %39 = add nuw nsw i64 %indvars.iv, 2
  %40 = getelementptr inbounds nuw [128 x i8], ptr %7, i64 0, i64 %39
  %41 = load i8, ptr %40, align 1, !tbaa !17
  %42 = icmp eq i8 %41, 0
  br i1 %42, label %.thread, label %43

43:                                               ; preds = %38
  %44 = sext i8 %41 to i32
  %45 = call i32 @isspace(i32 noundef %44) #21
  %.not = icmp eq i32 %45, 0
  br i1 %.not, label %46, label %.thread

46:                                               ; preds = %43
  %47 = getelementptr inbounds nuw [16 x i8], ptr %37, i64 0, i64 %indvars.iv
  store i8 %41, ptr %47, align 1, !tbaa !17
  %indvars.iv.next = add nuw nsw i64 %indvars.iv, 1
  %exitcond.not = icmp eq i64 %indvars.iv.next, 15
  br i1 %exitcond.not, label %.thread, label %38, !llvm.loop !27

.thread:                                          ; preds = %46, %43, %38
  %.033.lcssa = phi i64 [ %indvars.iv, %38 ], [ %indvars.iv, %43 ], [ 15, %46 ]
  %48 = and i64 %.033.lcssa, 4294967295
  %49 = getelementptr inbounds nuw [16 x i8], ptr %37, i64 0, i64 %48
  store i8 0, ptr %49, align 1, !tbaa !17
  br label %.outer.preheader

50:                                               ; preds = %28
  br i1 %9, label %.outer.preheader, label %.outer.us

.outer.preheader:                                 ; preds = %.thread, %50
  %51 = getelementptr inbounds nuw i8, ptr %3, i64 24
  %52 = getelementptr inbounds nuw i8, ptr %3, i64 20
  br label %.outer.outer

.outer.us:                                        ; preds = %50, %.critedge.us
  %.0.ph.us = phi i1 [ %.mux.us, %.critedge.us ], [ false, %50 ]
  br label %55

53:                                               ; preds = %55
  %54 = load i8, ptr %7, align 16, !tbaa !17
  switch i8 %54, label %.critedge.us [
    i8 10, label %.split53.us
    i8 35, label %55
  ]

.critedge.us:                                     ; preds = %53
  %bcmp.us = call i32 @bcmp(ptr noundef nonnull dereferenceable(24) %7, ptr noundef nonnull dereferenceable(24) @.str.6, i64 24)
  %.not56 = icmp eq i32 %bcmp.us, 0
  %.mux.us = select i1 %.not56, i1 true, i1 %.0.ph.us
  br label %.outer.us, !llvm.loop !29

55:                                               ; preds = %53, %.outer.us
  %56 = call ptr @fgets(ptr noundef nonnull %7, i32 noundef 128, ptr noundef %0)
  %57 = icmp eq ptr %56, null
  br i1 %57, label %.split55.us, label %53

.outer:                                           ; preds = %.outer.backedge, %.outer.outer
  br label %58

58:                                               ; preds = %.outer, %71
  %59 = call ptr @fgets(ptr noundef nonnull %7, i32 noundef 128, ptr noundef %0)
  %60 = icmp eq ptr %59, null
  br i1 %60, label %.split55.us, label %71

.split55.us:                                      ; preds = %55, %58
  call void @llvm.lifetime.start.p0(i64 32, ptr nonnull %5) #18
  %61 = getelementptr inbounds nuw i8, ptr %5, i64 16
  store ptr %61, ptr %5, align 8, !tbaa !9
  call void @llvm.memcpy.p0.p0.i64(ptr noundef nonnull align 8 dereferenceable(15) %61, ptr noundef nonnull align 1 dereferenceable(15) @.str.17, i64 15, i1 false)
  %62 = getelementptr inbounds nuw i8, ptr %5, i64 8
  store i64 15, ptr %62, align 8, !tbaa !18
  %63 = getelementptr inbounds nuw i8, ptr %5, i64 31
  store i8 0, ptr %63, align 1, !tbaa !17
  invoke void @_ZN2cv5errorEiRKNSt7__cxx1112basic_stringIcSt11char_traitsIcESaIcEEEPKcS9_i(i32 noundef -2, ptr noundef nonnull align 8 dereferenceable(32) %5, ptr noundef nonnull @__func__._ZL10rgbe_erroriPKc, ptr noundef nonnull @.str.18, i32 noundef 88) #19
          to label %64 unwind label %65

64:                                               ; preds = %.split55.us
  unreachable

65:                                               ; preds = %.split55.us
  %66 = landingpad { ptr, i32 }
          cleanup
  %67 = load ptr, ptr %5, align 8, !tbaa !15
  %68 = icmp eq ptr %67, %61
  br i1 %68, label %_ZNKSt7__cxx1112basic_stringIcSt11char_traitsIcESaIcEE11_M_is_localEv.exit.thread.i.i.i47, label %_ZNKSt7__cxx1112basic_stringIcSt11char_traitsIcESaIcEE11_M_is_localEv.exit.i.i.i45

_ZNKSt7__cxx1112basic_stringIcSt11char_traitsIcESaIcEE11_M_is_localEv.exit.thread.i.i.i47: ; preds = %65
  %69 = load i64, ptr %62, align 8, !tbaa !18
  %70 = icmp ult i64 %69, 16
  call void @llvm.assume(i1 %70)
  br label %_ZNSt7__cxx1112basic_stringIcSt11char_traitsIcESaIcEED2Ev.exit.i46

_ZNKSt7__cxx1112basic_stringIcSt11char_traitsIcESaIcEE11_M_is_localEv.exit.i.i.i45: ; preds = %65
  call void @_ZdlPv(ptr noundef %67) #20
  br label %_ZNSt7__cxx1112basic_stringIcSt11char_traitsIcESaIcEED2Ev.exit.i46

_ZNSt7__cxx1112basic_stringIcSt11char_traitsIcESaIcEED2Ev.exit.i46: ; preds = %_ZNKSt7__cxx1112basic_stringIcSt11char_traitsIcESaIcEE11_M_is_localEv.exit.i.i.i45, %_ZNKSt7__cxx1112basic_stringIcSt11char_traitsIcESaIcEE11_M_is_localEv.exit.thread.i.i.i47
  call void @llvm.lifetime.end.p0(i64 32, ptr nonnull %5) #18
  br label %common.resume

71:                                               ; preds = %58
  %72 = load i8, ptr %7, align 16, !tbaa !17
  switch i8 %72, label %73 [
    i8 10, label %.split53.us
    i8 35, label %58
  ]

73:                                               ; preds = %71
  %bcmp = call i32 @bcmp(ptr noundef nonnull dereferenceable(24) %7, ptr noundef nonnull dereferenceable(24) @.str.6, i64 24)
  %.not57 = icmp eq i32 %bcmp, 0
  br i1 %.not57, label %.outer.outer, label %74, !llvm.loop !29

.outer.outer:                                     ; preds = %73, %.outer.preheader
  %.0.ph.ph = phi i1 [ false, %.outer.preheader ], [ true, %73 ]
  br label %.outer

74:                                               ; preds = %73
  %75 = call i32 (ptr, ptr, ...) @__isoc99_sscanf(ptr noundef nonnull %7, ptr noundef nonnull @.str.7, ptr noundef nonnull %8) #18
  %76 = icmp eq i32 %75, 1
  br i1 %76, label %.critedge.sink.split, label %77

77:                                               ; preds = %74
  %78 = call i32 (ptr, ptr, ...) @__isoc99_sscanf(ptr noundef nonnull %7, ptr noundef nonnull @.str.8, ptr noundef nonnull %8) #18
  %79 = icmp eq i32 %78, 1
  br i1 %79, label %.critedge.sink.split, label %.outer.backedge

.critedge.sink.split:                             ; preds = %77, %74
  %.sink69 = phi ptr [ %52, %74 ], [ %51, %77 ]
  %.sink68 = phi i32 [ 2, %74 ], [ 4, %77 ]
  %80 = load float, ptr %8, align 4, !tbaa !30
  store float %80, ptr %.sink69, align 4, !tbaa !30
  %81 = load i32, ptr %3, align 4, !tbaa !3
  %82 = or i32 %81, %.sink68
  store i32 %82, ptr %3, align 4, !tbaa !3
  br label %.outer.backedge

.outer.backedge:                                  ; preds = %.critedge.sink.split, %77
  br label %.outer, !llvm.loop !29

.split53.us:                                      ; preds = %53, %71
  %.us-phi = phi i1 [ %.0.ph.ph, %71 ], [ %.0.ph.us, %53 ]
  %lhsv = load i16, ptr %7, align 16
  %.not43 = icmp eq i16 %lhsv, 10
  br i1 %.not43, label %84, label %83

83:                                               ; preds = %.split53.us
  call fastcc void @_ZL10rgbe_erroriPKc(i32 noundef 2, ptr noundef nonnull @.str.10)
  unreachable

84:                                               ; preds = %.split53.us
  br i1 %.us-phi, label %86, label %85

85:                                               ; preds = %84
  call fastcc void @_ZL10rgbe_erroriPKc(i32 noundef 2, ptr noundef nonnull @.str.11)
  unreachable

86:                                               ; preds = %84
  %87 = call ptr @fgets(ptr noundef nonnull %7, i32 noundef 128, ptr noundef %0)
  %88 = icmp eq ptr %87, null
  br i1 %88, label %89, label %90

89:                                               ; preds = %86
  call fastcc void @_ZL10rgbe_erroriPKc(i32 noundef 0, ptr noundef null)
  unreachable

90:                                               ; preds = %86
  %91 = call i32 (ptr, ptr, ...) @__isoc99_sscanf(ptr noundef nonnull %7, ptr noundef nonnull @.str.12, ptr noundef %2, ptr noundef %1) #18
  %92 = icmp slt i32 %91, 2
  br i1 %92, label %93, label %94

93:                                               ; preds = %90
  call fastcc void @_ZL10rgbe_erroriPKc(i32 noundef 2, ptr noundef nonnull @.str.13)
  unreachable

94:                                               ; preds = %90
  call void @llvm.lifetime.end.p0(i64 4, ptr nonnull %8) #18
  call void @llvm.lifetime.end.p0(i64 128, ptr nonnull %7) #18
  ret i32 0
}